; Function Attrs: nounwind uwtable
define ptr @l_Lean_Elab_Term_elabLetDeclAux___lambda__7___boxed(ptr noundef readonly captures(none) %0) local_unnamed_addr #1 {
  %2 = load ptr, ptr %0, align 8, !tbaa !4
  %3 = getelementptr inbounds nuw i8, ptr %0, i64 8
  %4 = load ptr, ptr %3, align 8, !tbaa !4
  %5 = getelementptr inbounds nuw i8, ptr %0, i64 16
  %6 = load ptr, ptr %5, align 8, !tbaa !4
  %7 = getelementptr inbounds nuw i8, ptr %0, i64 24
  %8 = load ptr, ptr %7, align 8, !tbaa !4
  %9 = getelementptr inbounds nuw i8, ptr %0, i64 32
  %10 = load ptr, ptr %9, align 8, !tbaa !4
  %11 = getelementptr inbounds nuw i8, ptr %0, i64 40
  %12 = load ptr, ptr %11, align 8, !tbaa !4
  %13 = getelementptr inbounds nuw i8, ptr %0, i64 48
  %14 = load ptr, ptr %13, align 8, !tbaa !4
  %15 = getelementptr inbounds nuw i8, ptr %0, i64 56
  %16 = load ptr, ptr %15, align 8, !tbaa !4
  %17 = getelementptr inbounds nuw i8, ptr %0, i64 64
  %18 = load ptr, ptr %17, align 8, !tbaa !4
  %19 = getelementptr inbounds nuw i8, ptr %0, i64 72
  %20 = load ptr, ptr %19, align 8, !tbaa !4
  %21 = getelementptr inbounds nuw i8, ptr %0, i64 80
  %22 = load ptr, ptr %21, align 8, !tbaa !4
  %23 = getelementptr inbounds nuw i8, ptr %0, i64 88
  %24 = load ptr, ptr %23, align 8, !tbaa !4
  %25 = getelementptr inbounds nuw i8, ptr %0, i64 96
  %26 = load ptr, ptr %25, align 8, !tbaa !4
  %27 = getelementptr inbounds nuw i8, ptr %0, i64 104
  %28 = load ptr, ptr %27, align 8, !tbaa !4
  %29 = getelementptr inbounds nuw i8, ptr %0, i64 112
  %30 = load ptr, ptr %29, align 8, !tbaa !4
  %31 = getelementptr inbounds nuw i8, ptr %0, i64 120
  %32 = load ptr, ptr %31, align 8, !tbaa !4
  %33 = getelementptr inbounds nuw i8, ptr %0, i64 128
  %34 = load ptr, ptr %33, align 8, !tbaa !4
  %35 = getelementptr inbounds nuw i8, ptr %0, i64 136
  %36 = load ptr, ptr %35, align 8, !tbaa !4
  %37 = getelementptr inbounds nuw i8, ptr %0, i64 144
  %38 = load ptr, ptr %37, align 8, !tbaa !4
  %39 = getelementptr inbounds nuw i8, ptr %0, i64 152
  %40 = load ptr, ptr %39, align 8, !tbaa !4
  %41 = ptrtoint ptr %2 to i64
  %42 = lshr i64 %41, 1
  %43 = trunc i64 %42 to i8
  %44 = and i64 %41, 1
  %.not = icmp eq i64 %44, 0
  br i1 %.not, label %45, label %lean_dec.exit52

45:                                               ; preds = %1
  %46 = load i32, ptr %2, align 4, !tbaa !8
  %47 = icmp sgt i32 %46, 1
  br i1 %47, label %48, label %50, !prof !11

48:                                               ; preds = %45
  %49 = add nsw i32 %46, -1
  store i32 %49, ptr %2, align 4, !tbaa !8
  br label %lean_dec.exit52

50:                                               ; preds = %45
  %.not.i = icmp eq i32 %46, 0
  br i1 %.not.i, label %lean_dec.exit52, label %51

51:                                               ; preds = %50
  tail call void @lean_dec_ref_cold(ptr noundef nonnull %2) #6
  br label %lean_dec.exit52

lean_dec.exit52:                                  ; preds = %51, %50, %48, %1
  %52 = ptrtoint ptr %12 to i64
  %53 = lshr i64 %52, 1
  %54 = trunc i64 %53 to i8
  %55 = and i64 %52, 1
  %.not61 = icmp eq i64 %55, 0
  br i1 %.not61, label %56, label %lean_dec.exit51

56:                                               ; preds = %lean_dec.exit52
  %57 = load i32, ptr %12, align 4, !tbaa !8
  %58 = icmp sgt i32 %57, 1
  br i1 %58, label %59, label %61, !prof !11

59:                                               ; preds = %56
  %60 = add nsw i32 %57, -1
  store i32 %60, ptr %12, align 4, !tbaa !8
  br label %lean_dec.exit51

61:                                               ; preds = %56
  %.not.i53 = icmp eq i32 %57, 0
  br i1 %.not.i53, label %lean_dec.exit51, label %62

62:                                               ; preds = %61
  tail call void @lean_dec_ref_cold(ptr noundef nonnull %12) #6
  br label %lean_dec.exit51

lean_dec.exit51:                                  ; preds = %62, %61, %59, %lean_dec.exit52
  %63 = ptrtoint ptr %22 to i64
  %64 = lshr i64 %63, 1
  %65 = trunc i64 %64 to i8
  %66 = and i64 %63, 1
  %.not62 = icmp eq i64 %66, 0
  br i1 %.not62, label %67, label %lean_dec.exit50

67:                                               ; preds = %lean_dec.exit51
  %68 = load i32, ptr %22, align 4, !tbaa !8
  %69 = icmp sgt i32 %68, 1
  br i1 %69, label %70, label %72, !prof !11

70:                                               ; preds = %67
  %71 = add nsw i32 %68, -1
  store i32 %71, ptr %22, align 4, !tbaa !8
  br label %lean_dec.exit50

72:                                               ; preds = %67
  %.not.i55 = icmp eq i32 %68, 0
  br i1 %.not.i55, label %lean_dec.exit50, label %73

73:                                               ; preds = %72
  tail call void @lean_dec_ref_cold(ptr noundef nonnull %22) #6
  br label %lean_dec.exit50

lean_dec.exit50:                                  ; preds = %73, %72, %70, %lean_dec.exit51
  %74 = ptrtoint ptr %24 to i64
  %75 = lshr i64 %74, 1
  %76 = trunc i64 %75 to i8
  %77 = and i64 %74, 1
  %.not63 = icmp eq i64 %77, 0
  br i1 %.not63, label %78, label %lean_dec.exit49

78:                                               ; preds = %lean_dec.exit50
  %79 = load i32, ptr %24, align 4, !tbaa !8
  %80 = icmp sgt i32 %79, 1
  br i1 %80, label %81, label %83, !prof !11

81:                                               ; preds = %78
  %82 = add nsw i32 %79, -1
  store i32 %82, ptr %24, align 4, !tbaa !8
  br label %lean_dec.exit49

83:                                               ; preds = %78
  %.not.i57 = icmp eq i32 %79, 0
  br i1 %.not.i57, label %lean_dec.exit49, label %84

84:                                               ; preds = %83
  tail call void @lean_dec_ref_cold(ptr noundef nonnull %24) #6
  br label %lean_dec.exit49

lean_dec.exit49:                                  ; preds = %84, %83, %81, %lean_dec.exit50
  %85 = tail call ptr @l_Lean_Elab_Term_elabLetDeclAux___lambda__7(i8 noundef zeroext %43, ptr noundef %4, ptr noundef %6, ptr noundef %8, ptr noundef %10, i8 noundef zeroext %54, ptr noundef %14, ptr noundef %16, ptr noundef %18, ptr noundef %20, i8 noundef zeroext %65, i8 noundef zeroext %76, ptr poison, ptr noundef %28, ptr noundef %30, ptr noundef %32, ptr noundef %34, ptr noundef %36, ptr noundef %38, ptr noundef %40)
  %86 = ptrtoint ptr %26 to i64
  %87 = and i64 %86, 1
  %.not64 = icmp eq i64 %87, 0
  br i1 %.not64, label %88, label %lean_dec.exit

88:                                               ; preds = %lean_dec.exit49
  %89 = load i32, ptr %26, align 4, !tbaa !8
  %90 = icmp sgt i32 %89, 1
  br i1 %90, label %91, label %93, !prof !11

91:                                               ; preds = %88
  %92 = add nsw i32 %89, -1
  store i32 %92, ptr %26, align 4, !tbaa !8
  br label %lean_dec.exit

93:                                               ; preds = %88
  %.not.i59 = icmp eq i32 %89, 0
  br i1 %.not.i59, label %lean_dec.exit, label %94

94:                                               ; preds = %93
  tail call void @lean_dec_ref_cold(ptr noundef nonnull %26) #6
  br label %lean_dec.exit

lean_dec.exit:                                    ; preds = %94, %93, %91, %lean_dec.exit49
  ret ptr %85
}